; Function Attrs: cold nounwind optsize uwtable
define internal noundef i32 @bonk_close(ptr noundef readonly captures(none) %0) #0 {
  %2 = getelementptr inbounds nuw i8, ptr %0, i64 32
  %3 = load ptr, ptr %2, align 8, !tbaa !4
  %4 = getelementptr inbounds nuw i8, ptr %3, i64 40
  tail call void @av_freep(ptr noundef nonnull %4) #8
  %5 = getelementptr inbounds nuw i8, ptr %3, i64 24688
  tail call void @av_freep(ptr noundef nonnull %5) #8
  %6 = getelementptr inbounds nuw i8, ptr %3, i64 24672
  tail call void @av_freep(ptr noundef nonnull %6) #8
  %7 = getelementptr inbounds nuw i8, ptr %3, i64 24680
  tail call void @av_freep(ptr noundef nonnull %7) #8
  %8 = getelementptr inbounds nuw i8, ptr %3, i64 26744
  tail call void @av_freep(ptr noundef nonnull %8) #8
  %9 = getelementptr inbounds nuw i8, ptr %3, i64 56
  store i32 0, ptr %9, align 8, !tbaa !50
  ret i32 0
}